; Function Attrs: mustprogress nounwind uwtable
define hidden void @_ZN10BlockBegin21add_exception_handlerEPS_(ptr noundef nonnull align 8 dereferenceable(408) %0, ptr noundef %1) local_unnamed_addr #1 align 2 {
  %3 = getelementptr inbounds i8, ptr %0, i64 224
  %4 = load i32, ptr %3, align 8
  %5 = icmp sgt i32 %4, 0
  br i1 %5, label %.lr.ph.i, label %_ZNK17GrowableArrayViewIP10BlockBeginE8containsERKS1_.exit.thread

.lr.ph.i:                                         ; preds = %2
  %6 = getelementptr inbounds i8, ptr %0, i64 232
  %7 = load ptr, ptr %6, align 8
  %8 = zext nneg i32 %4 to i64
  %9 = load ptr, ptr %7, align 8
  %10 = icmp eq ptr %9, %1
  br i1 %10, label %.critedge, label %.lr.ph

.lr.ph:                                           ; preds = %.lr.ph.i, %11
  %indvars.iv.i3 = phi i64 [ %indvars.iv.next.i, %11 ], [ 0, %.lr.ph.i ]
  %indvars.iv.next.i = add nuw nsw i64 %indvars.iv.i3, 1
  %exitcond.not.i = icmp eq i64 %indvars.iv.next.i, %8
  br i1 %exitcond.not.i, label %_ZNK17GrowableArrayViewIP10BlockBeginE8containsERKS1_.exit, label %11, !llvm.loop !19

11:                                               ; preds = %.lr.ph
  %12 = getelementptr inbounds ptr, ptr %7, i64 %indvars.iv.next.i
  %13 = load ptr, ptr %12, align 8
  %14 = icmp eq ptr %13, %1
  br i1 %14, label %_ZNK17GrowableArrayViewIP10BlockBeginE8containsERKS1_.exit, label %.lr.ph, !llvm.loop !19

_ZNK17GrowableArrayViewIP10BlockBeginE8containsERKS1_.exit: ; preds = %11, %.lr.ph
  %15 = icmp ult i64 %indvars.iv.next.i, %8
  br i1 %15, label %.critedge, label %_ZNK17GrowableArrayViewIP10BlockBeginE8containsERKS1_.exit.thread

_ZNK17GrowableArrayViewIP10BlockBeginE8containsERKS1_.exit.thread: ; preds = %2, %_ZNK17GrowableArrayViewIP10BlockBeginE8containsERKS1_.exit
  %16 = getelementptr inbounds i8, ptr %0, i64 228
  %17 = load i32, ptr %16, align 4
  %18 = icmp eq i32 %4, %17
  br i1 %18, label %19, label %_ZN26GrowableArrayWithAllocatorIP10BlockBegin13GrowableArrayIS1_EE6appendERKS1_.exit

19:                                               ; preds = %_ZNK17GrowableArrayViewIP10BlockBeginE8containsERKS1_.exit.thread
  %20 = add nsw i32 %4, 1
  %21 = icmp sgt i32 %4, -1
  %22 = xor i32 %4, -2147483648
  %23 = and i32 %22, %20
  %24 = icmp eq i32 %23, 0
  %25 = and i1 %21, %24
  %26 = tail call range(i32 0, 33) i32 @llvm.ctlz.i32(i32 %20, i1 true)
  %27 = sub nuw nsw i32 32, %26
  %28 = shl nuw i32 1, %27
  %.0.i.i.i.i = select i1 %25, i32 %20, i32 %28
  tail call void @_ZN26GrowableArrayWithAllocatorIP10BlockBegin13GrowableArrayIS1_EE9expand_toEi(ptr noundef nonnull align 8 dereferenceable(16) %3, i32 noundef %.0.i.i.i.i)
  %.pre.i = load i32, ptr %3, align 8
  br label %_ZN26GrowableArrayWithAllocatorIP10BlockBegin13GrowableArrayIS1_EE6appendERKS1_.exit

_ZN26GrowableArrayWithAllocatorIP10BlockBegin13GrowableArrayIS1_EE6appendERKS1_.exit: ; preds = %_ZNK17GrowableArrayViewIP10BlockBeginE8containsERKS1_.exit.thread, %19
  %29 = phi i32 [ %.pre.i, %19 ], [ %4, %_ZNK17GrowableArrayViewIP10BlockBeginE8containsERKS1_.exit.thread ]
  %30 = add nsw i32 %29, 1
  store i32 %30, ptr %3, align 8
  %31 = getelementptr inbounds i8, ptr %0, i64 232
  %32 = load ptr, ptr %31, align 8
  %33 = sext i32 %29 to i64
  %34 = getelementptr inbounds ptr, ptr %32, i64 %33
  store ptr %1, ptr %34, align 8
  br label %.critedge

.critedge:                                        ; preds = %.lr.ph.i, %_ZN26GrowableArrayWithAllocatorIP10BlockBegin13GrowableArrayIS1_EE6appendERKS1_.exit, %_ZNK17GrowableArrayViewIP10BlockBeginE8containsERKS1_.exit
  ret void
}